target datalayout = "e-m:e-p270:32:32-p271:32:32-p272:64:64-i64:64-i128:128-f80:128-n8:16:32:64-S128"
target triple = "x86_64-pc-linux-gnu"

%"class.icu_77::UnicodeString" = type { %"class.icu_77::Replaceable", %"union.icu_77::UnicodeString::StackBufferOrFields" }
%"class.icu_77::Replaceable" = type { %"class.icu_77::UObject" }
%"class.icu_77::UObject" = type { ptr }
%"union.icu_77::UnicodeString::StackBufferOrFields" = type { %struct.anon.3, [32 x i8] }
%struct.anon.3 = type { i16, i32, i32, ptr }
%"class.icu_77::Region" = type { %"class.icu_77::UObject", [4 x i8], %"class.icu_77::UnicodeString", i32, i32, ptr, ptr, ptr }
%"class.icu_77::UVector" = type { %"class.icu_77::UObject", i32, i32, ptr, ptr, ptr }
%struct.anon = type { i16, [27 x i16] }
%"struct.icu_77::UInitOnce" = type { %"struct.std::atomic", i32 }
%"struct.std::atomic" = type { %"struct.std::__atomic_base" }
%"struct.std::__atomic_base" = type { i32 }

@_ZN6icu_77L14numericCodeMapE = internal global ptr null, align 8
@_ZN6icu_77L11regionIDMapE = internal global ptr null, align 8
@_ZN6icu_77L13regionAliasesE = internal global ptr null, align 8
@_ZN6icu_77L19gRegionDataInitOnceE = internal global { { i32 }, i32 } zeroinitializer, align 4
@_ZTVN6icu_777UObjectE = available_externally unnamed_addr constant { [5 x ptr] } { [5 x ptr] [ptr null, ptr @_ZTIN6icu_777UObjectE, ptr @_ZN6icu_777UObjectD1Ev, ptr @_ZN6icu_777UObjectD0Ev, ptr @_ZNK6icu_777UObject17getDynamicClassIDEv] }, align 8

; Function Attrs: mustprogress nounwind uwtable
define linkonce_odr noundef i32 @_ZStanSt12memory_orderSt23__memory_order_modifier(i32 noundef %0, i32 noundef %1) #0 comdat {
  %3 = alloca i32, align 4
  %4 = alloca i32, align 4
  store i32 %0, ptr %3, align 4, !tbaa !148
  store i32 %1, ptr %4, align 4, !tbaa !150
  %5 = load i32, ptr %3, align 4, !tbaa !148
  %6 = load i32, ptr %4, align 4, !tbaa !150
  %7 = and i32 %5, %6
  ret i32 %7
}

; Function Attrs: inlinehint mustprogress nounwind uwtable
define linkonce_odr void @_ZN6icu_777UObjectC2Ev(ptr noundef nonnull align 8 dereferenceable(8) %0) unnamed_addr #2 comdat align 2 {
  %2 = alloca ptr, align 8
  store ptr %0, ptr %2, align 8, !tbaa !116
  %3 = load ptr, ptr %2, align 8
  store ptr getelementptr inbounds inrange(-16, 24) ({ [5 x ptr] }, ptr @_ZTVN6icu_777UObjectE, i32 0, i32 0, i32 2), ptr %3, align 8, !tbaa !96
  ret void
}

; Function Attrs: alwaysinline mustprogress nounwind uwtable
define linkonce_odr noundef i32 @_ZNKSt13__atomic_baseIiE4loadESt12memory_order(ptr noundef nonnull align 4 dereferenceable(4) %0, i32 noundef %1) #11 comdat align 2 {
  %3 = alloca ptr, align 8
  %4 = alloca i32, align 4
  %5 = alloca i32, align 4
  %6 = alloca i32, align 4
  store ptr %0, ptr %3, align 8, !tbaa !146
  store i32 %1, ptr %4, align 4, !tbaa !148
  %7 = load ptr, ptr %3, align 8
  call void @llvm.lifetime.start.p0(i64 4, ptr %5) #12
  %8 = load i32, ptr %4, align 4, !tbaa !148
  %9 = call noundef i32 @_ZStanSt12memory_orderSt23__memory_order_modifier(i32 noundef %8, i32 noundef 65535)
  store i32 %9, ptr %5, align 4, !tbaa !148
  br label %10

10:                                               ; preds = %2
  br label %11

11:                                               ; preds = %10
  br label %12

12:                                               ; preds = %11
  br label %13

13:                                               ; preds = %12
  br label %14

14:                                               ; preds = %13
  br label %15

15:                                               ; preds = %14
  %16 = getelementptr inbounds nuw %"struct.std::__atomic_base", ptr %7, i32 0, i32 0
  %17 = load i32, ptr %4, align 4, !tbaa !148
  switch i32 %17, label %18 [
    i32 1, label %20
    i32 2, label %20
    i32 5, label %22
  ]

18:                                               ; preds = %15
  %19 = load atomic i32, ptr %16 monotonic, align 4
  store i32 %19, ptr %6, align 4
  br label %24

20:                                               ; preds = %15, %15
  %21 = load atomic i32, ptr %16 acquire, align 4
  store i32 %21, ptr %6, align 4
  br label %24

22:                                               ; preds = %15
  %23 = load atomic i32, ptr %16 seq_cst, align 4
  store i32 %23, ptr %6, align 4
  br label %24

24:                                               ; preds = %22, %20, %18
  %25 = load i32, ptr %6, align 4, !tbaa !14
  call void @llvm.lifetime.end.p0(i64 4, ptr %5) #12
  ret i32 %25
}

; Function Attrs: inlinehint mustprogress nounwind uwtable
define linkonce_odr void @_ZN6icu_7711ReplaceableC2Ev(ptr noundef nonnull align 8 dereferenceable(8) %0) unnamed_addr #2 comdat align 2 {
  %2 = alloca ptr, align 8
  store ptr %0, ptr %2, align 8, !tbaa !144
  %3 = load ptr, ptr %2, align 8
  call void @_ZN6icu_777UObjectC2Ev(ptr noundef nonnull align 8 dereferenceable(8) %3) #12
  store ptr getelementptr inbounds inrange(-16, 88) ({ [13 x ptr] }, ptr @_ZTVN6icu_7711ReplaceableE, i32 0, i32 0, i32 2), ptr %3, align 8, !tbaa !96
  ret void
}

; Function Attrs: inlinehint mustprogress nounwind uwtable
define linkonce_odr noundef i32 @_ZN6icu_7716umtx_loadAcquireERSt6atomicIiE(ptr noundef nonnull align 4 dereferenceable(4) %0) #2 comdat {
  %2 = alloca ptr, align 8
  store ptr %0, ptr %2, align 8, !tbaa !152
  %3 = load ptr, ptr %2, align 8, !tbaa !152
  %4 = call noundef i32 @_ZNKSt13__atomic_baseIiE4loadESt12memory_order(ptr noundef nonnull align 4 dereferenceable(4) %3, i32 noundef 2) #12
  ret i32 %4
}

; Function Attrs: inlinehint mustprogress nounwind uwtable
define linkonce_odr noundef i32 @_ZNK6icu_777UVector4sizeEv(ptr noundef nonnull align 8 dereferenceable(40) %0) #2 comdat align 2 {
  %2 = alloca ptr, align 8
  store ptr %0, ptr %2, align 8, !tbaa !25
  %3 = load ptr, ptr %2, align 8
  %4 = getelementptr inbounds nuw %"class.icu_77::UVector", ptr %3, i32 0, i32 1
  %5 = load i32, ptr %4, align 8, !tbaa !104
  ret i32 %5
}

; Function Attrs: inlinehint mustprogress uwtable
define linkonce_odr void @_ZN6icu_7713UnicodeStringC2Ev(ptr noundef nonnull align 8 dereferenceable(64) %0) unnamed_addr #3 comdat align 2 {
  %2 = alloca ptr, align 8
  store ptr %0, ptr %2, align 8, !tbaa !35
  %3 = load ptr, ptr %2, align 8
  call void @_ZN6icu_7711ReplaceableC2Ev(ptr noundef nonnull align 8 dereferenceable(8) %3)
  store ptr getelementptr inbounds inrange(-16, 88) ({ [13 x ptr] }, ptr @_ZTVN6icu_7713UnicodeStringE, i32 0, i32 0, i32 2), ptr %3, align 8, !tbaa !96
  %4 = getelementptr inbounds nuw %"class.icu_77::UnicodeString", ptr %3, i32 0, i32 1
  %5 = getelementptr inbounds nuw %struct.anon, ptr %4, i32 0, i32 0
  store i16 2, ptr %5, align 8, !tbaa !64
  ret void
}

; Function Attrs: inlinehint mustprogress nounwind uwtable
define internal noundef signext i8 @_ZL9U_FAILURE10UErrorCode(i32 noundef %0) #2 {
  %2 = alloca i32, align 4
  store i32 %0, ptr %2, align 4, !tbaa !15
  %3 = load i32, ptr %2, align 4, !tbaa !15
  %4 = icmp sgt i32 %3, 0
  %5 = zext i1 %4 to i8
  ret i8 %5
}

; Function Attrs: inlinehint mustprogress uwtable
define linkonce_odr void @_ZN6icu_7713umtx_initOnceERNS_9UInitOnceEPFvR10UErrorCodeES3_(ptr noundef nonnull align 4 dereferenceable(8) %0, ptr noundef %1, ptr noundef nonnull align 4 dereferenceable(4) %2) #3 comdat {
  %4 = alloca ptr, align 8
  %5 = alloca ptr, align 8
  %6 = alloca ptr, align 8
  store ptr %0, ptr %4, align 8, !tbaa !114
  store ptr %1, ptr %5, align 8, !tbaa !22
  store ptr %2, ptr %6, align 8, !tbaa !22
  %7 = load ptr, ptr %6, align 8, !tbaa !22
  %8 = load i32, ptr %7, align 4, !tbaa !15
  %9 = call noundef signext i8 @_ZL9U_FAILURE10UErrorCode(i32 noundef %8)
  %10 = icmp ne i8 %9, 0
  br i1 %10, label %11, label %12

11:                                               ; preds = %3
  br label %41

12:                                               ; preds = %3
  %13 = load ptr, ptr %4, align 8, !tbaa !114
  %14 = getelementptr inbounds nuw %"struct.icu_77::UInitOnce", ptr %13, i32 0, i32 0
  %15 = call noundef i32 @_ZN6icu_7716umtx_loadAcquireERSt6atomicIiE(ptr noundef nonnull align 4 dereferenceable(4) %14)
  %16 = icmp ne i32 %15, 2
  br i1 %16, label %17, label %29

17:                                               ; preds = %12
  %18 = load ptr, ptr %4, align 8, !tbaa !114
  %19 = call noundef signext i8 @_ZN6icu_7720umtx_initImplPreInitERNS_9UInitOnceE(ptr noundef nonnull align 4 dereferenceable(8) %18)
  %20 = icmp ne i8 %19, 0
  br i1 %20, label %21, label %29

21:                                               ; preds = %17
  %22 = load ptr, ptr %5, align 8, !tbaa !22
  %23 = load ptr, ptr %6, align 8, !tbaa !22
  call void %22(ptr noundef nonnull align 4 dereferenceable(4) %23)
  %24 = load ptr, ptr %6, align 8, !tbaa !22
  %25 = load i32, ptr %24, align 4, !tbaa !15
  %26 = load ptr, ptr %4, align 8, !tbaa !114
  %27 = getelementptr inbounds nuw %"struct.icu_77::UInitOnce", ptr %26, i32 0, i32 1
  store i32 %25, ptr %27, align 4, !tbaa !120
  %28 = load ptr, ptr %4, align 8, !tbaa !114
  call void @_ZN6icu_7721umtx_initImplPostInitERNS_9UInitOnceE(ptr noundef nonnull align 4 dereferenceable(8) %28)
  br label %41

29:                                               ; preds = %17, %12
  %30 = load ptr, ptr %4, align 8, !tbaa !114
  %31 = getelementptr inbounds nuw %"struct.icu_77::UInitOnce", ptr %30, i32 0, i32 1
  %32 = load i32, ptr %31, align 4, !tbaa !120
  %33 = call noundef signext i8 @_ZL9U_FAILURE10UErrorCode(i32 noundef %32)
  %34 = icmp ne i8 %33, 0
  br i1 %34, label %35, label %40

35:                                               ; preds = %29
  %36 = load ptr, ptr %4, align 8, !tbaa !114
  %37 = getelementptr inbounds nuw %"struct.icu_77::UInitOnce", ptr %36, i32 0, i32 1
  %38 = load i32, ptr %37, align 4, !tbaa !120
  %39 = load ptr, ptr %6, align 8, !tbaa !22
  store i32 %38, ptr %39, align 4, !tbaa !15
  br label %40

40:                                               ; preds = %35, %29
  br label %41

41:                                               ; preds = %11, %40, %21
  ret void
}

; Function Attrs: mustprogress uwtable
define noundef ptr @_ZN6icu_776Region11getInstanceEiR10UErrorCode(i32 noundef %0, ptr noundef nonnull align 4 dereferenceable(4) %1) #1 align 2 personality ptr @__gxx_personality_v0 {
  %3 = alloca ptr, align 8
  %4 = alloca i32, align 4
  %5 = alloca ptr, align 8
  %6 = alloca ptr, align 8
  %7 = alloca %"class.icu_77::UnicodeString", align 8
  %8 = alloca ptr, align 8
  %9 = alloca i32, align 4
  %10 = alloca i32, align 4
  %11 = alloca ptr, align 8
  %12 = alloca ptr, align 8
  store i32 %0, ptr %4, align 4, !tbaa !14
  store ptr %1, ptr %5, align 8, !tbaa !22
  %13 = load ptr, ptr %5, align 8, !tbaa !22
  call void @_ZN6icu_7713umtx_initOnceERNS_9UInitOnceEPFvR10UErrorCodeES3_(ptr noundef nonnull align 4 dereferenceable(8) @_ZN6icu_77L19gRegionDataInitOnceE, ptr noundef @_ZN6icu_776Region14loadRegionDataER10UErrorCode, ptr noundef nonnull align 4 dereferenceable(4) %13)
  %14 = load ptr, ptr %5, align 8, !tbaa !22
  %15 = load i32, ptr %14, align 4, !tbaa !15
  %16 = call noundef signext i8 @_ZL9U_FAILURE10UErrorCode(i32 noundef %15)
  %17 = icmp ne i8 %16, 0
  br i1 %17, label %18, label %19

18:                                               ; preds = %2
  store ptr null, ptr %3, align 8
  br label %86

19:                                               ; preds = %2
  call void @llvm.lifetime.start.p0(i64 8, ptr %6) #12
  %20 = load ptr, ptr @_ZN6icu_77L14numericCodeMapE, align 8, !tbaa !66
  %21 = load i32, ptr %4, align 4, !tbaa !14
  %22 = call ptr @uhash_iget_77(ptr noundef %20, i32 noundef %21)
  store ptr %22, ptr %6, align 8, !tbaa !49
  %23 = load ptr, ptr %6, align 8, !tbaa !49
  %24 = icmp ne ptr %23, null
  br i1 %24, label %36, label %25

25:                                               ; preds = %19
  call void @llvm.lifetime.start.p0(i64 64, ptr %7) #12
  call void @_ZN6icu_7713UnicodeStringC2Ev(ptr noundef nonnull align 8 dereferenceable(64) %7)
  %26 = load i32, ptr %4, align 4, !tbaa !14
  %27 = invoke noundef nonnull align 8 dereferenceable(64) ptr @_ZN6icu_7711ICU_Utility12appendNumberERNS_13UnicodeStringEiii(ptr noundef nonnull align 8 dereferenceable(64) %7, i32 noundef %26, i32 noundef 10, i32 noundef 1)
          to label %28 unwind label %32

28:                                               ; preds = %25
  %29 = load ptr, ptr @_ZN6icu_77L13regionAliasesE, align 8, !tbaa !66
  %30 = invoke ptr @uhash_get_77(ptr noundef %29, ptr noundef %7)
          to label %31 unwind label %32

31:                                               ; preds = %28
  store ptr %30, ptr %6, align 8, !tbaa !49
  call void @_ZN6icu_7713UnicodeStringD1Ev(ptr noundef nonnull align 8 dereferenceable(64) %7) #12
  call void @llvm.lifetime.end.p0(i64 64, ptr %7) #12
  br label %36

32:                                               ; preds = %28, %25
  %33 = landingpad { ptr, i32 }
          cleanup
  %34 = extractvalue { ptr, i32 } %33, 0
  store ptr %34, ptr %8, align 8
  %35 = extractvalue { ptr, i32 } %33, 1
  store i32 %35, ptr %9, align 4
  call void @_ZN6icu_7713UnicodeStringD1Ev(ptr noundef nonnull align 8 dereferenceable(64) %7) #12
  call void @llvm.lifetime.end.p0(i64 64, ptr %7) #12
  call void @llvm.lifetime.end.p0(i64 8, ptr %6) #12
  br label %88

36:                                               ; preds = %31, %19
  %37 = load ptr, ptr %5, align 8, !tbaa !22
  %38 = load i32, ptr %37, align 4, !tbaa !15
  %39 = call noundef signext i8 @_ZL9U_FAILURE10UErrorCode(i32 noundef %38)
  %40 = icmp ne i8 %39, 0
  br i1 %40, label %41, label %42

41:                                               ; preds = %36
  store ptr null, ptr %3, align 8
  store i32 1, ptr %10, align 4
  br label %85

42:                                               ; preds = %36
  %43 = load ptr, ptr %6, align 8, !tbaa !49
  %44 = icmp ne ptr %43, null
  br i1 %44, label %47, label %45

45:                                               ; preds = %42
  %46 = load ptr, ptr %5, align 8, !tbaa !22
  store i32 1, ptr %46, align 4, !tbaa !15
  store ptr null, ptr %3, align 8
  store i32 1, ptr %10, align 4
  br label %85

47:                                               ; preds = %42
  %48 = load ptr, ptr %6, align 8, !tbaa !49
  %49 = getelementptr inbounds nuw %"class.icu_77::Region", ptr %48, i32 0, i32 4
  %50 = load i32, ptr %49, align 4, !tbaa !38
  %51 = icmp eq i32 %50, 6
  br i1 %51, label %52, label %83

52:                                               ; preds = %47
  %53 = load ptr, ptr %6, align 8, !tbaa !49
  %54 = getelementptr inbounds nuw %"class.icu_77::Region", ptr %53, i32 0, i32 7
  %55 = load ptr, ptr %54, align 8, !tbaa !53
  %56 = call noundef i32 @_ZNK6icu_777UVector4sizeEv(ptr noundef nonnull align 8 dereferenceable(40) %55)
  %57 = icmp eq i32 %56, 1
  br i1 %57, label %58, label %83

58:                                               ; preds = %52
  call void @llvm.lifetime.start.p0(i64 8, ptr %11) #12
  %59 = load ptr, ptr %6, align 8, !tbaa !49
  %60 = load ptr, ptr %5, align 8, !tbaa !22
  %61 = call noundef ptr @_ZNK6icu_776Region18getPreferredValuesER10UErrorCode(ptr noundef nonnull align 8 dereferenceable(112) %59, ptr noundef nonnull align 4 dereferenceable(4) %60)
  store ptr %61, ptr %11, align 8, !tbaa !118
  %62 = load ptr, ptr %11, align 8, !tbaa !118
  %63 = load ptr, ptr %5, align 8, !tbaa !22
  %64 = load ptr, ptr %62, align 8, !tbaa !96
  %65 = getelementptr inbounds ptr, ptr %64, i64 8
  %66 = load ptr, ptr %65, align 8
  call void %66(ptr noundef nonnull align 8 dereferenceable(116) %62, ptr noundef nonnull align 4 dereferenceable(4) %63)
  call void @llvm.lifetime.start.p0(i64 8, ptr %12) #12
  %67 = load ptr, ptr %11, align 8, !tbaa !118
  %68 = load ptr, ptr %5, align 8, !tbaa !22
  %69 = load ptr, ptr %67, align 8, !tbaa !96
  %70 = getelementptr inbounds ptr, ptr %69, i64 7
  %71 = load ptr, ptr %70, align 8
  %72 = call noundef ptr %71(ptr noundef nonnull align 8 dereferenceable(116) %67, ptr noundef nonnull align 4 dereferenceable(4) %68)
  store ptr %72, ptr %12, align 8, !tbaa !35
  %73 = load ptr, ptr @_ZN6icu_77L11regionIDMapE, align 8, !tbaa !66
  %74 = load ptr, ptr %12, align 8, !tbaa !35
  %75 = call ptr @uhash_get_77(ptr noundef %73, ptr noundef %74)
  store ptr %75, ptr %6, align 8, !tbaa !49
  %76 = load ptr, ptr %11, align 8, !tbaa !118
  %77 = icmp eq ptr %76, null
  br i1 %77, label %82, label %78

78:                                               ; preds = %58
  %79 = load ptr, ptr %76, align 8, !tbaa !96
  %80 = getelementptr inbounds ptr, ptr %79, i64 1
  %81 = load ptr, ptr %80, align 8
  call void %81(ptr noundef nonnull align 8 dereferenceable(116) %76) #12
  br label %82

82:                                               ; preds = %78, %58
  call void @llvm.lifetime.end.p0(i64 8, ptr %12) #12
  call void @llvm.lifetime.end.p0(i64 8, ptr %11) #12
  br label %83

83:                                               ; preds = %82, %52, %47
  %84 = load ptr, ptr %6, align 8, !tbaa !49
  store ptr %84, ptr %3, align 8
  store i32 1, ptr %10, align 4
  br label %85

85:                                               ; preds = %83, %45, %41
  call void @llvm.lifetime.end.p0(i64 8, ptr %6) #12
  br label %86

86:                                               ; preds = %85, %18
  %87 = load ptr, ptr %3, align 8
  ret ptr %87

88:                                               ; preds = %32
  %89 = load ptr, ptr %8, align 8
  %90 = load i32, ptr %9, align 4
  %91 = insertvalue { ptr, i32 } poison, ptr %89, 0
  %92 = insertvalue { ptr, i32 } %91, i32 %90, 1
  resume { ptr, i32 } %92
}