; Function Attrs: mustprogress uwtable
define noundef ptr @_ZN6icu_776Region11getInstanceEiR10UErrorCode(i32 noundef %0, ptr noundef nonnull align 4 dereferenceable(4) %1) local_unnamed_addr #1 align 2 personality ptr @__gxx_personality_v0 {
  %3 = alloca %"class.icu_77::UnicodeString", align 8
  %4 = load i32, ptr %1, align 4, !tbaa !13
  %5 = icmp slt i32 %4, 1
  br i1 %5, label %6, label %_ZN6icu_7713umtx_initOnceERNS_9UInitOnceEPFvR10UErrorCodeES3_.exit.thread

6:                                                ; preds = %2
  %7 = load atomic i32, ptr @_ZN6icu_77L19gRegionDataInitOnceE acquire, align 4
  %.not11.i = icmp eq i32 %7, 2
  br i1 %.not11.i, label %12, label %8

8:                                                ; preds = %6
  %9 = tail call noundef signext i8 @_ZN6icu_7720umtx_initImplPreInitERNS_9UInitOnceE(ptr noundef nonnull align 4 dereferenceable(8) @_ZN6icu_77L19gRegionDataInitOnceE)
  %.not12.i = icmp eq i8 %9, 0
  br i1 %.not12.i, label %12, label %10

10:                                               ; preds = %8
  tail call void @_ZN6icu_776Region14loadRegionDataER10UErrorCode(ptr noundef nonnull align 4 dereferenceable(4) %1)
  %11 = load i32, ptr %1, align 4, !tbaa !13
  store i32 %11, ptr getelementptr inbounds nuw (i8, ptr @_ZN6icu_77L19gRegionDataInitOnceE, i64 4), align 4, !tbaa !98
  tail call void @_ZN6icu_7721umtx_initImplPostInitERNS_9UInitOnceE(ptr noundef nonnull align 4 dereferenceable(8) @_ZN6icu_77L19gRegionDataInitOnceE)
  br label %_ZN6icu_7713umtx_initOnceERNS_9UInitOnceEPFvR10UErrorCodeES3_.exit

12:                                               ; preds = %8, %6
  %13 = load i32, ptr getelementptr inbounds nuw (i8, ptr @_ZN6icu_77L19gRegionDataInitOnceE, i64 4), align 4, !tbaa !98
  %14 = icmp slt i32 %13, 1
  br i1 %14, label %_ZN6icu_7713umtx_initOnceERNS_9UInitOnceEPFvR10UErrorCodeES3_.exit, label %15

15:                                               ; preds = %12
  store i32 %13, ptr %1, align 4, !tbaa !13
  br label %_ZN6icu_7713umtx_initOnceERNS_9UInitOnceEPFvR10UErrorCodeES3_.exit.thread

_ZN6icu_7713umtx_initOnceERNS_9UInitOnceEPFvR10UErrorCodeES3_.exit: ; preds = %10, %12
  %.pr = load i32, ptr %1, align 4, !tbaa !13
  %16 = icmp slt i32 %.pr, 1
  br i1 %16, label %17, label %_ZN6icu_7713umtx_initOnceERNS_9UInitOnceEPFvR10UErrorCodeES3_.exit.thread

17:                                               ; preds = %_ZN6icu_7713umtx_initOnceERNS_9UInitOnceEPFvR10UErrorCodeES3_.exit
  %18 = load ptr, ptr @_ZN6icu_77L14numericCodeMapE, align 8, !tbaa !96
  %19 = tail call ptr @uhash_iget_77(ptr noundef %18, i32 noundef %0)
  %.not24 = icmp eq ptr %19, null
  br i1 %.not24, label %20, label %29

20:                                               ; preds = %17
  call void @llvm.lifetime.start.p0(i64 64, ptr nonnull %3) #19
  store ptr getelementptr inbounds nuw inrange(-16, 88) (i8, ptr @_ZTVN6icu_7713UnicodeStringE, i64 16), ptr %3, align 8, !tbaa !26
  %21 = getelementptr inbounds nuw i8, ptr %3, i64 8
  store i16 2, ptr %21, align 8, !tbaa !28
  %22 = invoke noundef nonnull align 8 dereferenceable(64) ptr @_ZN6icu_7711ICU_Utility12appendNumberERNS_13UnicodeStringEiii(ptr noundef nonnull align 8 dereferenceable(64) %3, i32 noundef %0, i32 noundef 10, i32 noundef 1)
          to label %23 unwind label %27

23:                                               ; preds = %20
  %24 = load ptr, ptr @_ZN6icu_77L13regionAliasesE, align 8, !tbaa !96
  %25 = invoke ptr @uhash_get_77(ptr noundef %24, ptr noundef nonnull %3)
          to label %26 unwind label %27

26:                                               ; preds = %23
  call void @_ZN6icu_7713UnicodeStringD1Ev(ptr noundef nonnull align 8 dereferenceable(64) %3) #19
  call void @llvm.lifetime.end.p0(i64 64, ptr nonnull %3) #19
  br label %29

27:                                               ; preds = %23, %20
  %28 = landingpad { ptr, i32 }
          cleanup
  call void @_ZN6icu_7713UnicodeStringD1Ev(ptr noundef nonnull align 8 dereferenceable(64) %3) #19
  call void @llvm.lifetime.end.p0(i64 64, ptr nonnull %3) #19
  resume { ptr, i32 } %28

29:                                               ; preds = %26, %17
  %.021 = phi ptr [ %19, %17 ], [ %25, %26 ]
  %30 = load i32, ptr %1, align 4, !tbaa !13
  %31 = icmp slt i32 %30, 1
  br i1 %31, label %32, label %_ZN6icu_7713umtx_initOnceERNS_9UInitOnceEPFvR10UErrorCodeES3_.exit.thread

32:                                               ; preds = %29
  %.not26 = icmp eq ptr %.021, null
  br i1 %.not26, label %33, label %34

33:                                               ; preds = %32
  store i32 1, ptr %1, align 4, !tbaa !13
  br label %_ZN6icu_7713umtx_initOnceERNS_9UInitOnceEPFvR10UErrorCodeES3_.exit.thread

34:                                               ; preds = %32
  %35 = getelementptr inbounds nuw i8, ptr %.021, i64 84
  %36 = load i32, ptr %35, align 4, !tbaa !59
  %37 = icmp eq i32 %36, 6
  br i1 %37, label %38, label %_ZN6icu_7713umtx_initOnceERNS_9UInitOnceEPFvR10UErrorCodeES3_.exit.thread

38:                                               ; preds = %34
  %39 = getelementptr inbounds nuw i8, ptr %.021, i64 104
  %40 = load ptr, ptr %39, align 8, !tbaa !75
  %41 = getelementptr inbounds nuw i8, ptr %40, i64 8
  %42 = load i32, ptr %41, align 8, !tbaa !55
  %43 = icmp eq i32 %42, 1
  br i1 %43, label %44, label %_ZN6icu_7713umtx_initOnceERNS_9UInitOnceEPFvR10UErrorCodeES3_.exit.thread

44:                                               ; preds = %38
  %45 = call noundef ptr @_ZNK6icu_776Region18getPreferredValuesER10UErrorCode(ptr noundef nonnull align 8 dereferenceable(112) %.021, ptr noundef nonnull align 4 dereferenceable(4) %1)
  %46 = load ptr, ptr %45, align 8, !tbaa !26
  %47 = getelementptr inbounds nuw i8, ptr %46, i64 64
  %48 = load ptr, ptr %47, align 8
  call void %48(ptr noundef nonnull align 8 dereferenceable(116) %45, ptr noundef nonnull align 4 dereferenceable(4) %1)
  %49 = load ptr, ptr %45, align 8, !tbaa !26
  %50 = getelementptr inbounds nuw i8, ptr %49, i64 56
  %51 = load ptr, ptr %50, align 8
  %52 = call noundef ptr %51(ptr noundef nonnull align 8 dereferenceable(116) %45, ptr noundef nonnull align 4 dereferenceable(4) %1)
  %53 = load ptr, ptr @_ZN6icu_77L11regionIDMapE, align 8, !tbaa !96
  %54 = call ptr @uhash_get_77(ptr noundef %53, ptr noundef %52)
  %55 = load ptr, ptr %45, align 8, !tbaa !26
  %56 = getelementptr inbounds nuw i8, ptr %55, i64 8
  %57 = load ptr, ptr %56, align 8
  call void %57(ptr noundef nonnull align 8 dereferenceable(116) %45) #19
  br label %_ZN6icu_7713umtx_initOnceERNS_9UInitOnceEPFvR10UErrorCodeES3_.exit.thread

_ZN6icu_7713umtx_initOnceERNS_9UInitOnceEPFvR10UErrorCodeES3_.exit.thread: ; preds = %15, %2, %33, %29, %44, %38, %34, %_ZN6icu_7713umtx_initOnceERNS_9UInitOnceEPFvR10UErrorCodeES3_.exit
  %.0 = phi ptr [ null, %_ZN6icu_7713umtx_initOnceERNS_9UInitOnceEPFvR10UErrorCodeES3_.exit ], [ null, %33 ], [ null, %29 ], [ %54, %44 ], [ %.021, %38 ], [ %.021, %34 ], [ null, %2 ], [ null, %15 ]
  ret ptr %.0
}